target datalayout = "e-m:e-p270:32:32-p271:32:32-p272:64:64-i64:64-i128:128-f80:128-n8:16:32:64-S128"
target triple = "x86_64-pc-linux-gnu"

%struct.ImVec2 = type { float, float }
%struct.ImRect = type { %struct.ImVec2, %struct.ImVec2 }
%struct.ImGuiTextBuffer = type { %struct.ImVector.34 }
%struct.ImVector.34 = type { i32, i32, ptr }
%struct.ImGuiTabBar = type { ptr, %struct.ImVector.43, i32, i32, i32, i32, i32, i32, i32, %struct.ImRect, float, float, float, float, float, float, float, float, float, float, float, float, i32, i16, i8, i8, i8, i8, i16, i16, float, %struct.ImVec2, %struct.ImVec2, %struct.ImGuiTextBuffer }
%struct.ImVector.43 = type { i32, i32, ptr }
%struct.ImGuiTabItem = type <{ i32, i32, i32, i32, float, float, float, float, i32, i16, i16, i8, [3 x i8] }>

; Function Attrs: inlinehint mustprogress nounwind uwtable
define linkonce_odr dso_local noundef nonnull align 4 dereferenceable(41) ptr @_ZN8ImVectorI12ImGuiTabItemEixEi(ptr noundef nonnull align 8 dereferenceable(16) %0, i32 noundef %1) #2 comdat align 2 {
  %3 = alloca ptr, align 8
  %4 = alloca i32, align 4
  store ptr %0, ptr %3, align 8, !tbaa !814
  store i32 %1, ptr %4, align 4, !tbaa !9
  %5 = load ptr, ptr %3, align 8
  %6 = getelementptr inbounds nuw %struct.ImVector.43, ptr %5, i32 0, i32 2
  %7 = load ptr, ptr %6, align 8, !tbaa !818
  %8 = load i32, ptr %4, align 4, !tbaa !9
  %9 = sext i32 %8 to i64
  %10 = getelementptr inbounds %struct.ImGuiTabItem, ptr %7, i64 %9
  ret ptr %10
}

; Function Attrs: mustprogress uwtable
define dso_local noundef ptr @_ZN5ImGui17TabBarFindTabByIDEP11ImGuiTabBarj(ptr noundef %0, i32 noundef %1) #8 {
  %3 = alloca ptr, align 8
  %4 = alloca ptr, align 8
  %5 = alloca i32, align 4
  %6 = alloca i32, align 4
  %7 = alloca i32, align 4
  store ptr %0, ptr %4, align 8, !tbaa !807
  store i32 %1, ptr %5, align 4, !tbaa !9
  %8 = load i32, ptr %5, align 4, !tbaa !9
  %9 = icmp ne i32 %8, 0
  br i1 %9, label %10, label %40

10:                                               ; preds = %2
  call void @llvm.lifetime.start.p0(i64 4, ptr %6) #17
  store i32 0, ptr %6, align 4, !tbaa !9
  br label %11

11:                                               ; preds = %34, %10
  %12 = load i32, ptr %6, align 4, !tbaa !9
  %13 = load ptr, ptr %4, align 8, !tbaa !807
  %14 = getelementptr inbounds nuw %struct.ImGuiTabBar, ptr %13, i32 0, i32 1
  %15 = getelementptr inbounds nuw %struct.ImVector.43, ptr %14, i32 0, i32 0
  %16 = load i32, ptr %15, align 8, !tbaa !837
  %17 = icmp slt i32 %12, %16
  br i1 %17, label %19, label %18

18:                                               ; preds = %11
  store i32 2, ptr %7, align 4
  br label %37

19:                                               ; preds = %11
  %20 = load ptr, ptr %4, align 8, !tbaa !807
  %21 = getelementptr inbounds nuw %struct.ImGuiTabBar, ptr %20, i32 0, i32 1
  %22 = load i32, ptr %6, align 4, !tbaa !9
  %23 = call noundef nonnull align 4 dereferenceable(41) ptr @_ZN8ImVectorI12ImGuiTabItemEixEi(ptr noundef nonnull align 8 dereferenceable(16) %21, i32 noundef %22)
  %24 = getelementptr inbounds nuw %struct.ImGuiTabItem, ptr %23, i32 0, i32 0
  %25 = load i32, ptr %24, align 4, !tbaa !856
  %26 = load i32, ptr %5, align 4, !tbaa !9
  %27 = icmp eq i32 %25, %26
  br i1 %27, label %28, label %33

28:                                               ; preds = %19
  %29 = load ptr, ptr %4, align 8, !tbaa !807
  %30 = getelementptr inbounds nuw %struct.ImGuiTabBar, ptr %29, i32 0, i32 1
  %31 = load i32, ptr %6, align 4, !tbaa !9
  %32 = call noundef nonnull align 4 dereferenceable(41) ptr @_ZN8ImVectorI12ImGuiTabItemEixEi(ptr noundef nonnull align 8 dereferenceable(16) %30, i32 noundef %31)
  store ptr %32, ptr %3, align 8
  store i32 1, ptr %7, align 4
  br label %37

33:                                               ; preds = %19
  br label %34

34:                                               ; preds = %33
  %35 = load i32, ptr %6, align 4, !tbaa !9
  %36 = add nsw i32 %35, 1
  store i32 %36, ptr %6, align 4, !tbaa !9
  br label %11, !llvm.loop !897

37:                                               ; preds = %28, %18
  call void @llvm.lifetime.end.p0(i64 4, ptr %6) #17
  %38 = load i32, ptr %7, align 4
  switch i32 %38, label %43 [
    i32 2, label %39
    i32 1, label %41
  ]

39:                                               ; preds = %37
  br label %40

40:                                               ; preds = %39, %2
  store ptr null, ptr %3, align 8
  br label %41

41:                                               ; preds = %40, %37
  %42 = load ptr, ptr %3, align 8
  ret ptr %42

43:                                               ; preds = %37
  unreachable
}