; Function Attrs: mustprogress nofree norecurse nosync nounwind willreturn memory(read, inaccessiblemem: none) uwtable
define dso_local noundef ptr @_ZN5ImGui17TabBarFindTabByIDEP11ImGuiTabBarj(ptr noundef readonly captures(none) %0, i32 noundef %1) local_unnamed_addr #19 {
  %.not = icmp eq i32 %1, 0
  br i1 %.not, label %.thread, label %.preheader

.preheader:                                       ; preds = %2
  %3 = getelementptr inbounds nuw i8, ptr %0, i64 8
  %4 = load i32, ptr %3, align 8, !tbaa !738
  %5 = icmp sgt i32 %4, 0
  br i1 %5, label %.lr.ph, label %.thread

.lr.ph:                                           ; preds = %.preheader
  %6 = getelementptr inbounds nuw i8, ptr %0, i64 16
  %7 = load ptr, ptr %6, align 8, !tbaa !751
  %wide.trip.count = zext nneg i32 %4 to i64
  br label %9

8:                                                ; preds = %9
  %indvars.iv.next = add nuw nsw i64 %indvars.iv, 1
  %exitcond.not = icmp eq i64 %indvars.iv.next, %wide.trip.count
  br i1 %exitcond.not, label %.thread, label %9, !llvm.loop !767

9:                                                ; preds = %.lr.ph, %8
  %indvars.iv = phi i64 [ 0, %.lr.ph ], [ %indvars.iv.next, %8 ]
  %10 = getelementptr inbounds nuw %struct.ImGuiTabItem, ptr %7, i64 %indvars.iv
  %11 = load i32, ptr %10, align 4, !tbaa !754
  %12 = icmp eq i32 %11, %1
  br i1 %12, label %.thread, label %8

.thread:                                          ; preds = %8, %9, %.preheader, %2
  %.1 = phi ptr [ null, %2 ], [ null, %.preheader ], [ null, %8 ], [ %10, %9 ]
  ret ptr %.1
}